; Function Attrs: mustprogress nofree nounwind willreturn memory(write, argmem: readwrite) uwtable
define hidden noundef zeroext i1 @_ZNK5ceres18QuaternionManifold5MinusEPKdS2_Pd(ptr nocapture nonnull readnone align 8 %0, ptr nocapture noundef readonly %1, ptr nocapture noundef readonly %2, ptr nocapture noundef writeonly %3) unnamed_addr #10 align 2 {
  %5 = load double, ptr %1, align 8
  %6 = load double, ptr %2, align 8
  %7 = getelementptr inbounds i8, ptr %1, i64 8
  %8 = load double, ptr %7, align 8
  %9 = getelementptr inbounds i8, ptr %2, i64 8
  %10 = getelementptr inbounds i8, ptr %1, i64 16
  %11 = load double, ptr %10, align 8
  %12 = getelementptr inbounds i8, ptr %1, i64 24
  %13 = load double, ptr %12, align 8
  %14 = getelementptr inbounds i8, ptr %2, i64 24
  %15 = load double, ptr %14, align 8
  %16 = fneg double %5
  %17 = fneg double %11
  %18 = fneg double %13
  %19 = load <2 x double>, ptr %9, align 8
  %20 = shufflevector <2 x double> %19, <2 x double> poison, <2 x i32> <i32 1, i32 0>
  %21 = insertelement <2 x double> poison, double %8, i64 0
  %22 = shufflevector <2 x double> %21, <2 x double> poison, <2 x i32> zeroinitializer
  %23 = insertelement <2 x double> poison, double %6, i64 0
  %24 = insertelement <2 x double> %23, double %15, i64 1
  %25 = fmul <2 x double> %22, %24
  %26 = insertelement <2 x double> poison, double %16, i64 0
  %27 = shufflevector <2 x double> %26, <2 x double> poison, <2 x i32> zeroinitializer
  %28 = tail call <2 x double> @llvm.fmuladd.v2f64(<2 x double> %27, <2 x double> %19, <2 x double> %25)
  %29 = insertelement <2 x double> poison, double %17, i64 0
  %30 = insertelement <2 x double> %29, double %11, i64 1
  %31 = insertelement <2 x double> poison, double %15, i64 0
  %32 = insertelement <2 x double> %31, double %6, i64 1
  %33 = tail call <2 x double> @llvm.fmuladd.v2f64(<2 x double> %30, <2 x double> %32, <2 x double> %28)
  %34 = insertelement <2 x double> poison, double %13, i64 0
  %35 = insertelement <2 x double> %34, double %18, i64 1
  %36 = tail call <2 x double> @llvm.fmuladd.v2f64(<2 x double> %35, <2 x double> %20, <2 x double> %33)
  %37 = fneg double %8
  %38 = extractelement <2 x double> %19, i64 1
  %39 = fmul double %38, %37
  %40 = tail call double @llvm.fmuladd.f64(double %16, double %15, double %39)
  %41 = extractelement <2 x double> %19, i64 0
  %42 = tail call double @llvm.fmuladd.f64(double %11, double %41, double %40)
  %43 = tail call double @llvm.fmuladd.f64(double %13, double %6, double %42)
  %44 = tail call <2 x double> @llvm.fabs.v2f64(<2 x double> %36)
  %45 = tail call noundef double @llvm.fabs.f64(double %43)
  %46 = extractelement <2 x double> %44, i64 0
  %47 = extractelement <2 x double> %44, i64 1
  %48 = fcmp olt double %46, %47
  %..i.i.i = select i1 %48, double %47, double %46
  %49 = fcmp olt double %..i.i.i, %45
  %50 = select i1 %49, double %45, double %..i.i.i
  %51 = fcmp une double %50, 0.000000e+00
  br i1 %51, label %_ZSt5hypotddd.exit.i, label %_ZSt10fpclassifyd.exit.i

_ZSt5hypotddd.exit.i:                             ; preds = %4
  %52 = fdiv double %46, %50
  %53 = fdiv double %47, %50
  %54 = fmul double %53, %53
  %55 = tail call double @llvm.fmuladd.f64(double %52, double %52, double %54)
  %56 = fdiv double %45, %50
  %57 = tail call double @llvm.fmuladd.f64(double %56, double %56, double %55)
  %sqrt.i.i.i = tail call double @llvm.sqrt.f64(double %57)
  %58 = fmul double %50, %sqrt.i.i.i
  %59 = fcmp oeq double %58, 0.000000e+00
  br i1 %59, label %_ZSt10fpclassifyd.exit.i, label %60

60:                                               ; preds = %_ZSt5hypotddd.exit.i
  %61 = fmul double %8, %41
  %62 = tail call double @llvm.fmuladd.f64(double %5, double %6, double %61)
  %63 = tail call double @llvm.fmuladd.f64(double %11, double %38, double %62)
  %64 = tail call double @llvm.fmuladd.f64(double %13, double %15, double %63)
  %65 = tail call double @atan2(double noundef %58, double noundef %64) #29
  %66 = insertelement <2 x double> poison, double %65, i64 0
  %67 = shufflevector <2 x double> %66, <2 x double> poison, <2 x i32> zeroinitializer
  %68 = fmul <2 x double> %36, %67
  %69 = insertelement <2 x double> poison, double %58, i64 0
  %70 = shufflevector <2 x double> %69, <2 x double> poison, <2 x i32> zeroinitializer
  %71 = fdiv <2 x double> %68, %70
  store <2 x double> %71, ptr %3, align 8
  %72 = fmul double %43, %65
  %73 = fdiv double %72, %58
  %74 = getelementptr inbounds i8, ptr %3, i64 16
  store double %73, ptr %74, align 8
  br label %_ZN5ceres12_GLOBAL__N_119QuaternionMinusImplINS0_20CeresQuaternionOrderEEEvPKdS4_Pd.exit

_ZSt10fpclassifyd.exit.i:                         ; preds = %_ZSt5hypotddd.exit.i, %4
  tail call void @llvm.memset.p0.i64(ptr noundef nonnull align 8 dereferenceable(24) %3, i8 0, i64 24, i1 false)
  br label %_ZN5ceres12_GLOBAL__N_119QuaternionMinusImplINS0_20CeresQuaternionOrderEEEvPKdS4_Pd.exit

_ZN5ceres12_GLOBAL__N_119QuaternionMinusImplINS0_20CeresQuaternionOrderEEEvPKdS4_Pd.exit: ; preds = %60, %_ZSt10fpclassifyd.exit.i
  ret i1 true
}